target datalayout = "e-m:e-p270:32:32-p271:32:32-p272:64:64-i64:64-i128:128-f80:128-n8:16:32:64-S128"
target triple = "x86_64-pc-linux-gnu"

%struct.FunctionCallInfoBaseData = type { ptr, ptr, ptr, i32, i8, i16, [0 x %struct.NullableDatum] }
%struct.NullableDatum = type { i64, i8 }
%struct.List = type { i32, i32, i32, ptr, [0 x %union.ListCell] }
%union.ListCell = type { ptr }
%struct.String = type { i32, ptr }

@Mode = external global i32, align 4
@.str.1 = private unnamed_addr constant [10 x i8] c"regproc.c\00", align 1
@.str.4 = private unnamed_addr constant [2 x i8] c"-\00", align 1
@.str.34 = private unnamed_addr constant [46 x i8] c"regrole values must be OIDs in bootstrap mode\00", align 1
@__func__.regrolein = private unnamed_addr constant [10 x i8] c"regrolein\00", align 1
@.str.35 = private unnamed_addr constant [20 x i8] c"invalid name syntax\00", align 1
@.str.36 = private unnamed_addr constant [25 x i8] c"role \22%s\22 does not exist\00", align 1
@.str.39 = private unnamed_addr constant [11 x i8] c"0123456789\00", align 1

; Function Attrs: inlinehint nounwind uwtable
define internal i32 @DatumGetObjectId(i64 noundef %0) #2 {
  %2 = alloca i64, align 8
  store i64 %0, ptr %2, align 8
  %3 = load i64, ptr %2, align 8
  %4 = trunc i64 %3 to i32
  ret i32 %4
}

; Function Attrs: nounwind uwtable
define internal zeroext i1 @parseNumericOid(ptr noundef %0, ptr noundef %1, ptr noundef %2) #0 {
  %4 = alloca i1, align 1
  %5 = alloca ptr, align 8
  %6 = alloca ptr, align 8
  %7 = alloca ptr, align 8
  %8 = alloca i64, align 8
  store ptr %0, ptr %5, align 8
  store ptr %1, ptr %6, align 8
  store ptr %2, ptr %7, align 8
  %9 = load ptr, ptr %5, align 8
  %10 = getelementptr inbounds i8, ptr %9, i64 0
  %11 = load i8, ptr %10, align 1
  %12 = sext i8 %11 to i32
  %13 = icmp sge i32 %12, 48
  br i1 %13, label %14, label %33

14:                                               ; preds = %3
  %15 = load ptr, ptr %5, align 8
  %16 = getelementptr inbounds i8, ptr %15, i64 0
  %17 = load i8, ptr %16, align 1
  %18 = sext i8 %17 to i32
  %19 = icmp sle i32 %18, 57
  br i1 %19, label %20, label %33

20:                                               ; preds = %14
  %21 = load ptr, ptr %5, align 8
  %22 = call i64 @strspn(ptr noundef %21, ptr noundef @.str.39) #10
  %23 = load ptr, ptr %5, align 8
  %24 = call i64 @strlen(ptr noundef %23) #10
  %25 = icmp eq i64 %22, %24
  br i1 %25, label %26, label %33

26:                                               ; preds = %20
  call void @llvm.lifetime.start.p0(i64 8, ptr %8) #8
  %27 = load ptr, ptr %5, align 8
  %28 = load ptr, ptr %7, align 8
  %29 = call zeroext i1 @DirectInputFunctionCallSafe(ptr noundef @oidin, ptr noundef %27, i32 noundef 0, i32 noundef -1, ptr noundef %28, ptr noundef %8)
  %30 = load i64, ptr %8, align 8
  %31 = call i32 @DatumGetObjectId(i64 noundef %30)
  %32 = load ptr, ptr %6, align 8
  store i32 %31, ptr %32, align 4
  store i1 true, ptr %4, align 1
  call void @llvm.lifetime.end.p0(i64 8, ptr %8) #8
  br label %35

33:                                               ; preds = %20, %14, %3
  %34 = load ptr, ptr %6, align 8
  store i32 0, ptr %34, align 4
  store i1 false, ptr %4, align 1
  br label %35

35:                                               ; preds = %33, %26
  %36 = load i1, ptr %4, align 1
  ret i1 %36
}

; Function Attrs: inlinehint nounwind uwtable
define internal ptr @DatumGetPointer(i64 noundef %0) #2 {
  %2 = alloca i64, align 8
  store i64 %0, ptr %2, align 8
  %3 = load i64, ptr %2, align 8
  %4 = inttoptr i64 %3 to ptr
  ret ptr %4
}

; Function Attrs: inlinehint nounwind uwtable
define internal ptr @list_nth_cell(ptr noundef %0, i32 noundef %1) #2 {
  %3 = alloca ptr, align 8
  %4 = alloca i32, align 4
  store ptr %0, ptr %3, align 8
  store i32 %1, ptr %4, align 4
  %5 = load ptr, ptr %3, align 8
  %6 = getelementptr inbounds nuw %struct.List, ptr %5, i32 0, i32 3
  %7 = load ptr, ptr %6, align 8
  %8 = load i32, ptr %4, align 4
  %9 = sext i32 %8 to i64
  %10 = getelementptr inbounds %union.ListCell, ptr %7, i64 %9
  ret ptr %10
}

; Function Attrs: inlinehint nounwind uwtable
define internal i32 @list_length(ptr noundef %0) #2 {
  %2 = alloca ptr, align 8
  store ptr %0, ptr %2, align 8
  %3 = load ptr, ptr %2, align 8
  %4 = icmp ne ptr %3, null
  br i1 %4, label %5, label %9

5:                                                ; preds = %1
  %6 = load ptr, ptr %2, align 8
  %7 = getelementptr inbounds nuw %struct.List, ptr %6, i32 0, i32 1
  %8 = load i32, ptr %7, align 4
  br label %10

9:                                                ; preds = %1
  br label %10

10:                                               ; preds = %9, %5
  %11 = phi i32 [ %8, %5 ], [ 0, %9 ]
  ret i32 %11
}

; Function Attrs: inlinehint nounwind uwtable
define internal i64 @ObjectIdGetDatum(i32 noundef %0) #2 {
  %2 = alloca i32, align 4
  store i32 %0, ptr %2, align 4
  %3 = load i32, ptr %2, align 4
  %4 = zext i32 %3 to i64
  ret i64 %4
}

; Function Attrs: nounwind uwtable
define internal zeroext i1 @parseDashOrOid(ptr noundef %0, ptr noundef %1, ptr noundef %2) #0 {
  %4 = alloca i1, align 1
  %5 = alloca ptr, align 8
  %6 = alloca ptr, align 8
  %7 = alloca ptr, align 8
  store ptr %0, ptr %5, align 8
  store ptr %1, ptr %6, align 8
  store ptr %2, ptr %7, align 8
  %8 = load ptr, ptr %5, align 8
  %9 = call i32 @strcmp(ptr noundef %8, ptr noundef @.str.4) #10
  %10 = icmp eq i32 %9, 0
  br i1 %10, label %11, label %13

11:                                               ; preds = %3
  %12 = load ptr, ptr %6, align 8
  store i32 0, ptr %12, align 4
  store i1 true, ptr %4, align 1
  br label %18

13:                                               ; preds = %3
  %14 = load ptr, ptr %5, align 8
  %15 = load ptr, ptr %6, align 8
  %16 = load ptr, ptr %7, align 8
  %17 = call zeroext i1 @parseNumericOid(ptr noundef %14, ptr noundef %15, ptr noundef %16)
  store i1 %17, ptr %4, align 1
  br label %18

18:                                               ; preds = %13, %11
  %19 = load i1, ptr %4, align 1
  ret i1 %19
}

; Function Attrs: inlinehint nounwind uwtable
define internal ptr @DatumGetCString(i64 noundef %0) #2 {
  %2 = alloca i64, align 8
  store i64 %0, ptr %2, align 8
  %3 = load i64, ptr %2, align 8
  %4 = call ptr @DatumGetPointer(i64 noundef %3)
  ret ptr %4
}

; Function Attrs: nounwind uwtable
define dso_local i64 @regrolein(ptr noundef %0) #0 {
  %2 = alloca i64, align 8
  %3 = alloca ptr, align 8
  %4 = alloca ptr, align 8
  %5 = alloca ptr, align 8
  %6 = alloca i32, align 4
  %7 = alloca ptr, align 8
  %8 = alloca i32, align 4
  %9 = alloca ptr, align 8
  %10 = alloca ptr, align 8
  store ptr %0, ptr %3, align 8
  call void @llvm.lifetime.start.p0(i64 8, ptr %4) #8
  %11 = load ptr, ptr %3, align 8
  %12 = getelementptr inbounds nuw %struct.FunctionCallInfoBaseData, ptr %11, i32 0, i32 6
  %13 = getelementptr inbounds [0 x %struct.NullableDatum], ptr %12, i64 0, i64 0
  %14 = getelementptr inbounds nuw %struct.NullableDatum, ptr %13, i32 0, i32 0
  %15 = load i64, ptr %14, align 8
  %16 = call ptr @DatumGetCString(i64 noundef %15)
  store ptr %16, ptr %4, align 8
  call void @llvm.lifetime.start.p0(i64 8, ptr %5) #8
  %17 = load ptr, ptr %3, align 8
  %18 = getelementptr inbounds nuw %struct.FunctionCallInfoBaseData, ptr %17, i32 0, i32 1
  %19 = load ptr, ptr %18, align 8
  store ptr %19, ptr %5, align 8
  call void @llvm.lifetime.start.p0(i64 4, ptr %6) #8
  call void @llvm.lifetime.start.p0(i64 8, ptr %7) #8
  %20 = load ptr, ptr %4, align 8
  %21 = load ptr, ptr %5, align 8
  %22 = call zeroext i1 @parseDashOrOid(ptr noundef %20, ptr noundef %6, ptr noundef %21)
  br i1 %22, label %23, label %26

23:                                               ; preds = %1
  %24 = load i32, ptr %6, align 4
  %25 = call i64 @ObjectIdGetDatum(i32 noundef %24)
  store i64 %25, ptr %2, align 8
  store i32 1, ptr %8, align 4
  br label %103

26:                                               ; preds = %1
  %27 = load i32, ptr @Mode, align 4
  %28 = icmp eq i32 %27, 0
  br i1 %28, label %29, label %40

29:                                               ; preds = %26
  br label %30

30:                                               ; preds = %29
  br i1 true, label %31, label %33

31:                                               ; preds = %30
  %32 = call zeroext i1 @errstart_cold(i32 noundef 21, ptr noundef null) #9
  br i1 %32, label %35, label %37

33:                                               ; preds = %30
  %34 = call zeroext i1 @errstart(i32 noundef 21, ptr noundef null)
  br i1 %34, label %35, label %37

35:                                               ; preds = %33, %31
  %36 = call i32 (ptr, ...) @errmsg_internal(ptr noundef @.str.34)
  call void @errfinish(ptr noundef @.str.1, i32 noundef 1554, ptr noundef @__func__.regrolein)
  br label %37

37:                                               ; preds = %35, %33, %31
  unreachable

38:                                               ; No predecessors!
  br label %39

39:                                               ; preds = %38
  br label %40

40:                                               ; preds = %39, %26
  %41 = load ptr, ptr %4, align 8
  %42 = load ptr, ptr %5, align 8
  %43 = call ptr @stringToQualifiedNameList(ptr noundef %41, ptr noundef %42)
  store ptr %43, ptr %7, align 8
  %44 = load ptr, ptr %7, align 8
  %45 = icmp eq ptr %44, null
  br i1 %45, label %46, label %52

46:                                               ; preds = %40
  br label %47

47:                                               ; preds = %46
  %48 = load ptr, ptr %3, align 8
  %49 = getelementptr inbounds nuw %struct.FunctionCallInfoBaseData, ptr %48, i32 0, i32 4
  store i8 1, ptr %49, align 4
  store i64 0, ptr %2, align 8
  store i32 1, ptr %8, align 4
  br label %103

50:                                               ; No predecessors!
  br label %51

51:                                               ; preds = %50
  br label %52

52:                                               ; preds = %51, %40
  %53 = load ptr, ptr %7, align 8
  %54 = call i32 @list_length(ptr noundef %53)
  %55 = icmp ne i32 %54, 1
  br i1 %55, label %56, label %71

56:                                               ; preds = %52
  br label %57

57:                                               ; preds = %56
  br label %58

58:                                               ; preds = %57
  call void @llvm.lifetime.start.p0(i64 8, ptr %9) #8
  %59 = load ptr, ptr %5, align 8
  store ptr %59, ptr %9, align 8
  %60 = load ptr, ptr %9, align 8
  %61 = call zeroext i1 @errsave_start(ptr noundef %60, ptr noundef null)
  br i1 %61, label %62, label %66

62:                                               ; preds = %58
  %63 = call i32 @errcode(i32 noundef 33579140)
  %64 = call i32 (ptr, ...) @errmsg(ptr noundef @.str.35)
  %65 = load ptr, ptr %9, align 8
  call void @errsave_finish(ptr noundef %65, ptr noundef @.str.1, i32 noundef 1564, ptr noundef @__func__.regrolein)
  br label %66

66:                                               ; preds = %62, %58
  call void @llvm.lifetime.end.p0(i64 8, ptr %9) #8
  br label %67

67:                                               ; preds = %66
  br label %68

68:                                               ; preds = %67
  store i64 0, ptr %2, align 8
  store i32 1, ptr %8, align 4
  br label %103

69:                                               ; No predecessors!
  br label %70

70:                                               ; preds = %69
  br label %71

71:                                               ; preds = %70, %52
  %72 = load ptr, ptr %7, align 8
  %73 = call ptr @list_nth_cell(ptr noundef %72, i32 noundef 0)
  %74 = load ptr, ptr %73, align 8
  %75 = getelementptr inbounds nuw %struct.String, ptr %74, i32 0, i32 1
  %76 = load ptr, ptr %75, align 8
  %77 = call i32 @get_role_oid(ptr noundef %76, i1 noundef zeroext true)
  store i32 %77, ptr %6, align 4
  %78 = load i32, ptr %6, align 4
  %79 = icmp ne i32 %78, 0
  br i1 %79, label %100, label %80

80:                                               ; preds = %71
  br label %81

81:                                               ; preds = %80
  br label %82

82:                                               ; preds = %81
  call void @llvm.lifetime.start.p0(i64 8, ptr %10) #8
  %83 = load ptr, ptr %5, align 8
  store ptr %83, ptr %10, align 8
  %84 = load ptr, ptr %10, align 8
  %85 = call zeroext i1 @errsave_start(ptr noundef %84, ptr noundef null)
  br i1 %85, label %86, label %95

86:                                               ; preds = %82
  %87 = call i32 @errcode(i32 noundef 67137668)
  %88 = load ptr, ptr %7, align 8
  %89 = call ptr @list_nth_cell(ptr noundef %88, i32 noundef 0)
  %90 = load ptr, ptr %89, align 8
  %91 = getelementptr inbounds nuw %struct.String, ptr %90, i32 0, i32 1
  %92 = load ptr, ptr %91, align 8
  %93 = call i32 (ptr, ...) @errmsg(ptr noundef @.str.36, ptr noundef %92)
  %94 = load ptr, ptr %10, align 8
  call void @errsave_finish(ptr noundef %94, ptr noundef @.str.1, i32 noundef 1572, ptr noundef @__func__.regrolein)
  br label %95

95:                                               ; preds = %86, %82
  call void @llvm.lifetime.end.p0(i64 8, ptr %10) #8
  br label %96

96:                                               ; preds = %95
  br label %97

97:                                               ; preds = %96
  store i64 0, ptr %2, align 8
  store i32 1, ptr %8, align 4
  br label %103

98:                                               ; No predecessors!
  br label %99

99:                                               ; preds = %98
  br label %100

100:                                              ; preds = %99, %71
  %101 = load i32, ptr %6, align 4
  %102 = call i64 @ObjectIdGetDatum(i32 noundef %101)
  store i64 %102, ptr %2, align 8
  store i32 1, ptr %8, align 4
  br label %103

103:                                              ; preds = %100, %97, %68, %47, %23
  call void @llvm.lifetime.end.p0(i64 8, ptr %7) #8
  call void @llvm.lifetime.end.p0(i64 4, ptr %6) #8
  call void @llvm.lifetime.end.p0(i64 8, ptr %5) #8
  call void @llvm.lifetime.end.p0(i64 8, ptr %4) #8
  %104 = load i64, ptr %2, align 8
  ret i64 %104
}